target datalayout = "e-m:e-p270:32:32-p271:32:32-p272:64:64-i64:64-i128:128-f80:128-n8:16:32:64-S128"
target triple = "x86_64-pc-linux-gnu"

@ett_kafka_acl_filter = internal global i32 0, align 4
@.str.729 = private unnamed_addr constant [8 x i8] c"Filters\00", align 1

; Function Attrs: null_pointer_is_valid sspstrong uwtable
define internal i32 @dissect_kafka_delete_acls_request(ptr noundef %0, ptr noundef %1, ptr noundef %2, i32 noundef %3, i16 noundef signext %4) #0 {
  %6 = alloca ptr, align 8
  %7 = alloca ptr, align 8
  %8 = alloca ptr, align 8
  %9 = alloca i32, align 4
  %10 = alloca i16, align 2
  %11 = alloca ptr, align 8
  %12 = alloca ptr, align 8
  store ptr %0, ptr %6, align 8
  store ptr %1, ptr %7, align 8
  store ptr %2, ptr %8, align 8
  store i32 %3, ptr %9, align 4
  store i16 %4, ptr %10, align 2
  call void @llvm.lifetime.start.p0(i64 8, ptr %11) #12
  call void @llvm.lifetime.start.p0(i64 8, ptr %12) #12
  %13 = load ptr, ptr %8, align 8
  %14 = load ptr, ptr %6, align 8
  %15 = load i32, ptr %9, align 4
  %16 = load i32, ptr @ett_kafka_acl_filter, align 4
  %17 = call ptr @proto_tree_add_subtree(ptr noundef %13, ptr noundef %14, i32 noundef %15, i32 noundef -1, i32 noundef %16, ptr noundef %11, ptr noundef @.str.729)
  store ptr %17, ptr %12, align 8
  %18 = load ptr, ptr %12, align 8
  %19 = load ptr, ptr %6, align 8
  %20 = load ptr, ptr %7, align 8
  %21 = load i32, ptr %9, align 4
  %22 = load i16, ptr %10, align 2
  %23 = sext i16 %22 to i32
  %24 = icmp sge i32 %23, 2
  %25 = zext i1 %24 to i32
  %26 = load i16, ptr %10, align 2
  %27 = call i32 @dissect_kafka_array(ptr noundef %18, ptr noundef %19, ptr noundef %20, i32 noundef %21, i32 noundef %25, i16 noundef signext %26, ptr noundef @dissect_kafka_delete_acls_request_filter, ptr noundef null)
  store i32 %27, ptr %9, align 4
  %28 = load ptr, ptr %11, align 8
  %29 = load ptr, ptr %6, align 8
  %30 = load i32, ptr %9, align 4
  call void @proto_item_set_end(ptr noundef %28, ptr noundef %29, i32 noundef %30)
  %31 = load i16, ptr %10, align 2
  %32 = sext i16 %31 to i32
  %33 = icmp sge i32 %32, 2
  br i1 %33, label %34, label %40

34:                                               ; preds = %5
  %35 = load ptr, ptr %6, align 8
  %36 = load ptr, ptr %7, align 8
  %37 = load ptr, ptr %8, align 8
  %38 = load i32, ptr %9, align 4
  %39 = call i32 @dissect_kafka_tagged_fields(ptr noundef %35, ptr noundef %36, ptr noundef %37, i32 noundef %38, i16 noundef signext 0)
  store i32 %39, ptr %9, align 4
  br label %40

40:                                               ; preds = %34, %5
  %41 = load i32, ptr %9, align 4
  call void @llvm.lifetime.end.p0(i64 8, ptr %12) #12
  call void @llvm.lifetime.end.p0(i64 8, ptr %11) #12
  ret i32 %41
}