; Function Attrs: null_pointer_is_valid sspstrong uwtable
define internal fastcc i32 @dissect_kafka_delete_acls_request(ptr noundef %0, ptr noundef %1, ptr noundef %2, i32 noundef %3, i16 noundef signext %4) unnamed_addr #0 {
  %6 = alloca ptr, align 8
  call void @llvm.lifetime.start.p0(i64 8, ptr nonnull %6) #9
  %7 = load i32, ptr @ett_kafka_acl_filter, align 4
  %8 = call ptr @proto_tree_add_subtree(ptr noundef %2, ptr noundef %0, i32 noundef %3, i32 noundef -1, i32 noundef %7, ptr noundef nonnull %6, ptr noundef nonnull @.str.729)
  %9 = icmp sgt i16 %4, 1
  %10 = zext i1 %9 to i32
  %11 = call fastcc i32 @dissect_kafka_array(ptr noundef %8, ptr noundef %0, ptr noundef %1, i32 noundef %3, i32 noundef %10, i16 noundef signext %4, ptr noundef nonnull @dissect_kafka_delete_acls_request_filter, ptr noundef null)
  %12 = load ptr, ptr %6, align 8
  call void @proto_item_set_end(ptr noundef %12, ptr noundef %0, i32 noundef %11)
  br i1 %9, label %13, label %15

13:                                               ; preds = %5
  %14 = call fastcc i32 @dissect_kafka_tagged_fields(ptr noundef %0, ptr noundef %1, ptr noundef %2, i32 noundef %11)
  br label %15

15:                                               ; preds = %13, %5
  %.0 = phi i32 [ %14, %13 ], [ %11, %5 ]
  call void @llvm.lifetime.end.p0(i64 8, ptr nonnull %6) #9
  ret i32 %.0
}